target datalayout = "e-m:e-p270:32:32-p271:32:32-p272:64:64-i64:64-i128:128-f80:128-n8:16:32:64-S128"
target triple = "x86_64-pc-linux-gnu"

%struct.sample_coll_t = type { ptr, ptr, double, i32, ptr, ptr, i32, i64, ptr, ptr }
%struct.samples_t = type { ptr, ptr, double, i8, i32, ptr, ptr, double, double, ptr, ptr, i64, i64, ptr }
%struct.hist_t = type { [2 x ptr], [2 x double], [2 x i64], [2 x i32], i64, i32, double, double }
%struct.sample_range_t = type { i32, i32, i8, ptr }

; Function Attrs: inlinehint mustprogress nounwind uwtable
define linkonce_odr noundef nonnull align 8 dereferenceable(8) ptr @_ZSt3maxIdERKT_S2_S2_(ptr noundef nonnull align 8 dereferenceable(8) %0, ptr noundef nonnull align 8 dereferenceable(8) %1) #10 comdat {
  %3 = alloca ptr, align 8
  %4 = alloca ptr, align 8
  %5 = alloca ptr, align 8
  store ptr %0, ptr %4, align 8, !tbaa !47
  store ptr %1, ptr %5, align 8, !tbaa !47
  %6 = load ptr, ptr %4, align 8, !tbaa !47
  %7 = load double, ptr %6, align 8, !tbaa !32
  %8 = load ptr, ptr %5, align 8, !tbaa !47
  %9 = load double, ptr %8, align 8, !tbaa !32
  %10 = fcmp olt double %7, %9
  br i1 %10, label %11, label %13

11:                                               ; preds = %2
  %12 = load ptr, ptr %5, align 8, !tbaa !47
  store ptr %12, ptr %3, align 8
  br label %15

13:                                               ; preds = %2
  %14 = load ptr, ptr %4, align 8, !tbaa !47
  store ptr %14, ptr %3, align 8
  br label %15

15:                                               ; preds = %13, %11
  %16 = load ptr, ptr %3, align 8
  ret ptr %16
}

; Function Attrs: inlinehint mustprogress nounwind uwtable
define linkonce_odr noundef nonnull align 8 dereferenceable(8) ptr @_ZSt3minIdERKT_S2_S2_(ptr noundef nonnull align 8 dereferenceable(8) %0, ptr noundef nonnull align 8 dereferenceable(8) %1) #10 comdat {
  %3 = alloca ptr, align 8
  %4 = alloca ptr, align 8
  %5 = alloca ptr, align 8
  store ptr %0, ptr %4, align 8, !tbaa !47
  store ptr %1, ptr %5, align 8, !tbaa !47
  %6 = load ptr, ptr %5, align 8, !tbaa !47
  %7 = load double, ptr %6, align 8, !tbaa !32
  %8 = load ptr, ptr %4, align 8, !tbaa !47
  %9 = load double, ptr %8, align 8, !tbaa !32
  %10 = fcmp olt double %7, %9
  br i1 %10, label %11, label %13

11:                                               ; preds = %2
  %12 = load ptr, ptr %5, align 8, !tbaa !47
  store ptr %12, ptr %3, align 8
  br label %15

13:                                               ; preds = %2
  %14 = load ptr, ptr %4, align 8, !tbaa !47
  store ptr %14, ptr %3, align 8
  br label %15

15:                                               ; preds = %13, %11
  %16 = load ptr, ptr %3, align 8
  ret ptr %16
}

; Function Attrs: mustprogress nounwind uwtable
define linkonce_odr noundef float @_ZNSt14numeric_limitsIfE3maxEv() #3 comdat align 2 {
  ret float 0x47EFFFFFE0000000
}

; Function Attrs: mustprogress uwtable
define internal void @_ZL19sample_coll_min_maxP13sample_coll_tdPdS1_(ptr noundef %0, double noundef %1, ptr noundef %2, ptr noundef %3) #0 {
  %5 = alloca ptr, align 8
  %6 = alloca double, align 8
  %7 = alloca ptr, align 8
  %8 = alloca ptr, align 8
  %9 = alloca i32, align 4
  %10 = alloca i32, align 4
  %11 = alloca ptr, align 8
  %12 = alloca ptr, align 8
  %13 = alloca double, align 8
  %14 = alloca double, align 8
  %15 = alloca i32, align 4
  %16 = alloca double, align 8
  %17 = alloca double, align 8
  %18 = alloca double, align 8
  %19 = alloca double, align 8
  %20 = alloca double, align 8
  store ptr %0, ptr %5, align 8, !tbaa !167
  store double %1, ptr %6, align 8, !tbaa !32
  store ptr %2, ptr %7, align 8, !tbaa !47
  store ptr %3, ptr %8, align 8, !tbaa !47
  call void @llvm.lifetime.start.p0(i64 4, ptr %9) #17
  call void @llvm.lifetime.start.p0(i64 4, ptr %10) #17
  %21 = call noundef float @_ZNSt14numeric_limitsIfE3maxEv() #17
  %22 = fpext float %21 to double
  %23 = load ptr, ptr %7, align 8, !tbaa !47
  store double %22, ptr %23, align 8, !tbaa !32
  %24 = call noundef float @_ZNSt14numeric_limitsIfE3maxEv() #17
  %25 = fneg float %24
  %26 = fpext float %25 to double
  %27 = load ptr, ptr %8, align 8, !tbaa !47
  store double %26, ptr %27, align 8, !tbaa !32
  store i32 0, ptr %9, align 4, !tbaa !4
  br label %28

28:                                               ; preds = %228, %4
  %29 = load i32, ptr %9, align 4, !tbaa !4
  %30 = load ptr, ptr %5, align 8, !tbaa !167
  %31 = getelementptr inbounds nuw %struct.sample_coll_t, ptr %30, i32 0, i32 3
  %32 = load i32, ptr %31, align 8, !tbaa !168
  %33 = icmp slt i32 %29, %32
  br i1 %33, label %34, label %231

34:                                               ; preds = %28
  call void @llvm.lifetime.start.p0(i64 8, ptr %11) #17
  %35 = load ptr, ptr %5, align 8, !tbaa !167
  %36 = getelementptr inbounds nuw %struct.sample_coll_t, ptr %35, i32 0, i32 4
  %37 = load ptr, ptr %36, align 8, !tbaa !169
  %38 = load i32, ptr %9, align 4, !tbaa !4
  %39 = sext i32 %38 to i64
  %40 = getelementptr inbounds ptr, ptr %37, i64 %39
  %41 = load ptr, ptr %40, align 8, !tbaa !106
  store ptr %41, ptr %11, align 8, !tbaa !106
  call void @llvm.lifetime.start.p0(i64 8, ptr %12) #17
  %42 = load ptr, ptr %5, align 8, !tbaa !167
  %43 = getelementptr inbounds nuw %struct.sample_coll_t, ptr %42, i32 0, i32 5
  %44 = load ptr, ptr %43, align 8, !tbaa !201
  %45 = load i32, ptr %9, align 4, !tbaa !4
  %46 = sext i32 %45 to i64
  %47 = getelementptr inbounds %struct.sample_range_t, ptr %44, i64 %46
  store ptr %47, ptr %12, align 8, !tbaa !312
  %48 = load ptr, ptr %12, align 8, !tbaa !312
  %49 = getelementptr inbounds nuw %struct.sample_range_t, ptr %48, i32 0, i32 2
  %50 = load i8, ptr %49, align 8, !tbaa !202, !range !41, !noundef !42
  %51 = trunc i8 %50 to i1
  br i1 %51, label %52, label %227

52:                                               ; preds = %34
  %53 = load ptr, ptr %11, align 8, !tbaa !106
  %54 = getelementptr inbounds nuw %struct.samples_t, ptr %53, i32 0, i32 9
  %55 = load ptr, ptr %54, align 8, !tbaa !171
  %56 = icmp ne ptr %55, null
  br i1 %56, label %98, label %57

57:                                               ; preds = %52
  %58 = load ptr, ptr %12, align 8, !tbaa !312
  %59 = getelementptr inbounds nuw %struct.sample_range_t, ptr %58, i32 0, i32 0
  %60 = load i32, ptr %59, align 8, !tbaa !313
  store i32 %60, ptr %10, align 4, !tbaa !4
  br label %61

61:                                               ; preds = %94, %57
  %62 = load i32, ptr %10, align 4, !tbaa !4
  %63 = load ptr, ptr %12, align 8, !tbaa !312
  %64 = getelementptr inbounds nuw %struct.sample_range_t, ptr %63, i32 0, i32 1
  %65 = load i32, ptr %64, align 4, !tbaa !314
  %66 = icmp slt i32 %62, %65
  br i1 %66, label %67, label %97

67:                                               ; preds = %61
  %68 = load ptr, ptr %7, align 8, !tbaa !47
  call void @llvm.lifetime.start.p0(i64 8, ptr %13) #17
  %69 = load ptr, ptr %11, align 8, !tbaa !106
  %70 = getelementptr inbounds nuw %struct.samples_t, ptr %69, i32 0, i32 5
  %71 = load ptr, ptr %70, align 8, !tbaa !110
  %72 = load i32, ptr %10, align 4, !tbaa !4
  %73 = sext i32 %72 to i64
  %74 = getelementptr inbounds double, ptr %71, i64 %73
  %75 = load double, ptr %74, align 8, !tbaa !32
  %76 = load double, ptr %6, align 8, !tbaa !32
  %77 = fmul double %75, %76
  store double %77, ptr %13, align 8, !tbaa !32
  %78 = call noundef nonnull align 8 dereferenceable(8) ptr @_ZSt3minIdERKT_S2_S2_(ptr noundef nonnull align 8 dereferenceable(8) %68, ptr noundef nonnull align 8 dereferenceable(8) %13)
  %79 = load double, ptr %78, align 8, !tbaa !32
  %80 = load ptr, ptr %7, align 8, !tbaa !47
  store double %79, ptr %80, align 8, !tbaa !32
  call void @llvm.lifetime.end.p0(i64 8, ptr %13) #17
  %81 = load ptr, ptr %8, align 8, !tbaa !47
  call void @llvm.lifetime.start.p0(i64 8, ptr %14) #17
  %82 = load ptr, ptr %11, align 8, !tbaa !106
  %83 = getelementptr inbounds nuw %struct.samples_t, ptr %82, i32 0, i32 5
  %84 = load ptr, ptr %83, align 8, !tbaa !110
  %85 = load i32, ptr %10, align 4, !tbaa !4
  %86 = sext i32 %85 to i64
  %87 = getelementptr inbounds double, ptr %84, i64 %86
  %88 = load double, ptr %87, align 8, !tbaa !32
  %89 = load double, ptr %6, align 8, !tbaa !32
  %90 = fmul double %88, %89
  store double %90, ptr %14, align 8, !tbaa !32
  %91 = call noundef nonnull align 8 dereferenceable(8) ptr @_ZSt3maxIdERKT_S2_S2_(ptr noundef nonnull align 8 dereferenceable(8) %81, ptr noundef nonnull align 8 dereferenceable(8) %14)
  %92 = load double, ptr %91, align 8, !tbaa !32
  %93 = load ptr, ptr %8, align 8, !tbaa !47
  store double %92, ptr %93, align 8, !tbaa !32
  call void @llvm.lifetime.end.p0(i64 8, ptr %14) #17
  br label %94

94:                                               ; preds = %67
  %95 = load i32, ptr %10, align 4, !tbaa !4
  %96 = add nsw i32 %95, 1
  store i32 %96, ptr %10, align 4, !tbaa !4
  br label %61, !llvm.loop !405

97:                                               ; preds = %61
  br label %226

98:                                               ; preds = %52
  call void @llvm.lifetime.start.p0(i64 4, ptr %15) #17
  store i32 0, ptr %15, align 4, !tbaa !4
  call void @llvm.lifetime.start.p0(i64 8, ptr %16) #17
  %99 = load ptr, ptr %11, align 8, !tbaa !106
  %100 = getelementptr inbounds nuw %struct.samples_t, ptr %99, i32 0, i32 9
  %101 = load ptr, ptr %100, align 8, !tbaa !171
  %102 = getelementptr inbounds nuw %struct.hist_t, ptr %101, i32 0, i32 5
  %103 = load i32, ptr %102, align 8, !tbaa !342
  %104 = icmp sgt i32 %103, 1
  br i1 %104, label %105, label %109

105:                                              ; preds = %98
  %106 = load double, ptr %6, align 8, !tbaa !32
  %107 = fcmp olt double %106, 0.000000e+00
  br i1 %107, label %108, label %109

108:                                              ; preds = %105
  store i32 1, ptr %15, align 4, !tbaa !4
  br label %109

109:                                              ; preds = %108, %105, %98
  %110 = load ptr, ptr %11, align 8, !tbaa !106
  %111 = getelementptr inbounds nuw %struct.samples_t, ptr %110, i32 0, i32 9
  %112 = load ptr, ptr %111, align 8, !tbaa !171
  %113 = getelementptr inbounds nuw %struct.hist_t, ptr %112, i32 0, i32 1
  %114 = load i32, ptr %15, align 4, !tbaa !4
  %115 = sext i32 %114 to i64
  %116 = getelementptr inbounds [2 x double], ptr %113, i64 0, i64 %115
  %117 = load double, ptr %116, align 8, !tbaa !32
  store double %117, ptr %16, align 8, !tbaa !32
  %118 = load ptr, ptr %11, align 8, !tbaa !106
  %119 = getelementptr inbounds nuw %struct.samples_t, ptr %118, i32 0, i32 9
  %120 = load ptr, ptr %119, align 8, !tbaa !171
  %121 = getelementptr inbounds nuw %struct.hist_t, ptr %120, i32 0, i32 3
  %122 = load i32, ptr %15, align 4, !tbaa !4
  %123 = sext i32 %122 to i64
  %124 = getelementptr inbounds [2 x i32], ptr %121, i64 0, i64 %123
  %125 = load i32, ptr %124, align 4, !tbaa !4
  %126 = sub nsw i32 %125, 1
  store i32 %126, ptr %10, align 4, !tbaa !4
  br label %127

127:                                              ; preds = %222, %109
  %128 = load i32, ptr %10, align 4, !tbaa !4
  %129 = icmp sge i32 %128, 0
  br i1 %129, label %130, label %225

130:                                              ; preds = %127
  %131 = load ptr, ptr %7, align 8, !tbaa !47
  call void @llvm.lifetime.start.p0(i64 8, ptr %17) #17
  %132 = load double, ptr %6, align 8, !tbaa !32
  %133 = load ptr, ptr %11, align 8, !tbaa !106
  %134 = getelementptr inbounds nuw %struct.samples_t, ptr %133, i32 0, i32 9
  %135 = load ptr, ptr %134, align 8, !tbaa !171
  %136 = getelementptr inbounds nuw %struct.hist_t, ptr %135, i32 0, i32 2
  %137 = load i32, ptr %15, align 4, !tbaa !4
  %138 = sext i32 %137 to i64
  %139 = getelementptr inbounds [2 x i64], ptr %136, i64 0, i64 %138
  %140 = load i64, ptr %139, align 8, !tbaa !91
  %141 = sitofp i64 %140 to double
  %142 = fmul double %132, %141
  %143 = load double, ptr %16, align 8, !tbaa !32
  %144 = fmul double %142, %143
  store double %144, ptr %17, align 8, !tbaa !32
  %145 = call noundef nonnull align 8 dereferenceable(8) ptr @_ZSt3minIdERKT_S2_S2_(ptr noundef nonnull align 8 dereferenceable(8) %131, ptr noundef nonnull align 8 dereferenceable(8) %17)
  %146 = load double, ptr %145, align 8, !tbaa !32
  %147 = load ptr, ptr %7, align 8, !tbaa !47
  store double %146, ptr %147, align 8, !tbaa !32
  call void @llvm.lifetime.end.p0(i64 8, ptr %17) #17
  %148 = load ptr, ptr %8, align 8, !tbaa !47
  call void @llvm.lifetime.start.p0(i64 8, ptr %18) #17
  %149 = load double, ptr %6, align 8, !tbaa !32
  %150 = load ptr, ptr %11, align 8, !tbaa !106
  %151 = getelementptr inbounds nuw %struct.samples_t, ptr %150, i32 0, i32 9
  %152 = load ptr, ptr %151, align 8, !tbaa !171
  %153 = getelementptr inbounds nuw %struct.hist_t, ptr %152, i32 0, i32 2
  %154 = load i32, ptr %15, align 4, !tbaa !4
  %155 = sext i32 %154 to i64
  %156 = getelementptr inbounds [2 x i64], ptr %153, i64 0, i64 %155
  %157 = load i64, ptr %156, align 8, !tbaa !91
  %158 = sitofp i64 %157 to double
  %159 = fmul double %149, %158
  %160 = load double, ptr %16, align 8, !tbaa !32
  %161 = fmul double %159, %160
  store double %161, ptr %18, align 8, !tbaa !32
  %162 = call noundef nonnull align 8 dereferenceable(8) ptr @_ZSt3maxIdERKT_S2_S2_(ptr noundef nonnull align 8 dereferenceable(8) %148, ptr noundef nonnull align 8 dereferenceable(8) %18)
  %163 = load double, ptr %162, align 8, !tbaa !32
  %164 = load ptr, ptr %8, align 8, !tbaa !47
  store double %163, ptr %164, align 8, !tbaa !32
  call void @llvm.lifetime.end.p0(i64 8, ptr %18) #17
  %165 = load ptr, ptr %11, align 8, !tbaa !106
  %166 = getelementptr inbounds nuw %struct.samples_t, ptr %165, i32 0, i32 9
  %167 = load ptr, ptr %166, align 8, !tbaa !171
  %168 = getelementptr inbounds nuw %struct.hist_t, ptr %167, i32 0, i32 0
  %169 = load i32, ptr %15, align 4, !tbaa !4
  %170 = sext i32 %169 to i64
  %171 = getelementptr inbounds [2 x ptr], ptr %168, i64 0, i64 %170
  %172 = load ptr, ptr %171, align 8, !tbaa !124
  %173 = load i32, ptr %10, align 4, !tbaa !4
  %174 = sext i32 %173 to i64
  %175 = getelementptr inbounds i32, ptr %172, i64 %174
  %176 = load i32, ptr %175, align 4, !tbaa !4
  %177 = icmp ugt i32 %176, 0
  br i1 %177, label %178, label %221

178:                                              ; preds = %130
  %179 = load ptr, ptr %7, align 8, !tbaa !47
  call void @llvm.lifetime.start.p0(i64 8, ptr %19) #17
  %180 = load double, ptr %6, align 8, !tbaa !32
  %181 = load i32, ptr %10, align 4, !tbaa !4
  %182 = sext i32 %181 to i64
  %183 = load ptr, ptr %11, align 8, !tbaa !106
  %184 = getelementptr inbounds nuw %struct.samples_t, ptr %183, i32 0, i32 9
  %185 = load ptr, ptr %184, align 8, !tbaa !171
  %186 = getelementptr inbounds nuw %struct.hist_t, ptr %185, i32 0, i32 2
  %187 = load i32, ptr %15, align 4, !tbaa !4
  %188 = sext i32 %187 to i64
  %189 = getelementptr inbounds [2 x i64], ptr %186, i64 0, i64 %188
  %190 = load i64, ptr %189, align 8, !tbaa !91
  %191 = add nsw i64 %182, %190
  %192 = add nsw i64 %191, 1
  %193 = sitofp i64 %192 to double
  %194 = fmul double %180, %193
  %195 = load double, ptr %16, align 8, !tbaa !32
  %196 = fmul double %194, %195
  store double %196, ptr %19, align 8, !tbaa !32
  %197 = call noundef nonnull align 8 dereferenceable(8) ptr @_ZSt3minIdERKT_S2_S2_(ptr noundef nonnull align 8 dereferenceable(8) %179, ptr noundef nonnull align 8 dereferenceable(8) %19)
  %198 = load double, ptr %197, align 8, !tbaa !32
  %199 = load ptr, ptr %7, align 8, !tbaa !47
  store double %198, ptr %199, align 8, !tbaa !32
  call void @llvm.lifetime.end.p0(i64 8, ptr %19) #17
  %200 = load ptr, ptr %8, align 8, !tbaa !47
  call void @llvm.lifetime.start.p0(i64 8, ptr %20) #17
  %201 = load double, ptr %6, align 8, !tbaa !32
  %202 = load i32, ptr %10, align 4, !tbaa !4
  %203 = sext i32 %202 to i64
  %204 = load ptr, ptr %11, align 8, !tbaa !106
  %205 = getelementptr inbounds nuw %struct.samples_t, ptr %204, i32 0, i32 9
  %206 = load ptr, ptr %205, align 8, !tbaa !171
  %207 = getelementptr inbounds nuw %struct.hist_t, ptr %206, i32 0, i32 2
  %208 = load i32, ptr %15, align 4, !tbaa !4
  %209 = sext i32 %208 to i64
  %210 = getelementptr inbounds [2 x i64], ptr %207, i64 0, i64 %209
  %211 = load i64, ptr %210, align 8, !tbaa !91
  %212 = add nsw i64 %203, %211
  %213 = add nsw i64 %212, 1
  %214 = sitofp i64 %213 to double
  %215 = fmul double %201, %214
  %216 = load double, ptr %16, align 8, !tbaa !32
  %217 = fmul double %215, %216
  store double %217, ptr %20, align 8, !tbaa !32
  %218 = call noundef nonnull align 8 dereferenceable(8) ptr @_ZSt3maxIdERKT_S2_S2_(ptr noundef nonnull align 8 dereferenceable(8) %200, ptr noundef nonnull align 8 dereferenceable(8) %20)
  %219 = load double, ptr %218, align 8, !tbaa !32
  %220 = load ptr, ptr %8, align 8, !tbaa !47
  store double %219, ptr %220, align 8, !tbaa !32
  call void @llvm.lifetime.end.p0(i64 8, ptr %20) #17
  br label %225

221:                                              ; preds = %130
  br label %222

222:                                              ; preds = %221
  %223 = load i32, ptr %10, align 4, !tbaa !4
  %224 = add nsw i32 %223, -1
  store i32 %224, ptr %10, align 4, !tbaa !4
  br label %127, !llvm.loop !406

225:                                              ; preds = %178, %127
  call void @llvm.lifetime.end.p0(i64 8, ptr %16) #17
  call void @llvm.lifetime.end.p0(i64 4, ptr %15) #17
  br label %226

226:                                              ; preds = %225, %97
  br label %227

227:                                              ; preds = %226, %34
  call void @llvm.lifetime.end.p0(i64 8, ptr %12) #17
  call void @llvm.lifetime.end.p0(i64 8, ptr %11) #17
  br label %228

228:                                              ; preds = %227
  %229 = load i32, ptr %9, align 4, !tbaa !4
  %230 = add nsw i32 %229, 1
  store i32 %230, ptr %9, align 4, !tbaa !4
  br label %28, !llvm.loop !407

231:                                              ; preds = %28
  call void @llvm.lifetime.end.p0(i64 4, ptr %10) #17
  call void @llvm.lifetime.end.p0(i64 4, ptr %9) #17
  ret void
}