; Function Attrs: mustprogress nofree norecurse nosync nounwind memory(read, argmem: readwrite, inaccessiblemem: none) uwtable
define internal fastcc void @_ZL19sample_coll_min_maxP13sample_coll_tdPdS1_(ptr noundef readonly captures(none) %0, double noundef %1, ptr noundef nonnull captures(none) initializes((0, 8)) %2, ptr noundef nonnull captures(none) initializes((0, 8)) %3) unnamed_addr #19 {
  store double 0x47EFFFFFE0000000, ptr %2, align 8, !tbaa !80
  store double 0xC7EFFFFFE0000000, ptr %3, align 8, !tbaa !80
  %5 = getelementptr inbounds nuw i8, ptr %0, i64 24
  %6 = load i32, ptr %5, align 8, !tbaa !111
  %7 = icmp sgt i32 %6, 0
  br i1 %7, label %.lr.ph95, label %._crit_edge

.lr.ph95:                                         ; preds = %4
  %8 = getelementptr inbounds nuw i8, ptr %0, i64 32
  %9 = load ptr, ptr %8, align 8, !tbaa !112
  %10 = getelementptr inbounds nuw i8, ptr %0, i64 40
  %11 = load ptr, ptr %10, align 8, !tbaa !123
  %12 = fcmp olt double %1, 0.000000e+00
  %wide.trip.count106 = zext nneg i32 %6 to i64
  br label %13

13:                                               ; preds = %.lr.ph95, %.loopexit
  %indvars.iv103 = phi i64 [ 0, %.lr.ph95 ], [ %indvars.iv.next104, %.loopexit ]
  %14 = getelementptr inbounds nuw ptr, ptr %9, i64 %indvars.iv103
  %15 = load ptr, ptr %14, align 8, !tbaa !113
  %16 = getelementptr inbounds nuw %struct.sample_range_t, ptr %11, i64 %indvars.iv103
  %17 = getelementptr inbounds nuw i8, ptr %16, i64 8
  %18 = load i8, ptr %17, align 8, !tbaa !130, !range !132, !noundef !133
  %19 = trunc nuw i8 %18 to i1
  br i1 %19, label %20, label %.loopexit

20:                                               ; preds = %13
  %21 = getelementptr inbounds nuw i8, ptr %15, i64 64
  %22 = load ptr, ptr %21, align 8, !tbaa !116
  %.not = icmp eq ptr %22, null
  br i1 %.not, label %23, label %41

23:                                               ; preds = %20
  %24 = load i32, ptr %16, align 8, !tbaa !126
  %25 = getelementptr inbounds nuw i8, ptr %16, i64 4
  %26 = load i32, ptr %25, align 4, !tbaa !129
  %27 = icmp slt i32 %24, %26
  br i1 %27, label %.lr.ph, label %.loopexit

.lr.ph:                                           ; preds = %23
  %28 = getelementptr inbounds nuw i8, ptr %15, i64 32
  %29 = load ptr, ptr %28, align 8, !tbaa !103
  %30 = sext i32 %24 to i64
  %wide.trip.count = sext i32 %26 to i64
  br label %31

31:                                               ; preds = %.lr.ph, %31
  %indvars.iv100 = phi i64 [ %30, %.lr.ph ], [ %indvars.iv.next101, %31 ]
  %32 = getelementptr inbounds double, ptr %29, i64 %indvars.iv100
  %33 = load double, ptr %32, align 8, !tbaa !80
  %34 = fmul double %1, %33
  %35 = load double, ptr %2, align 8, !tbaa !80
  %36 = fcmp olt double %34, %35
  %.sroa.speculated88 = select i1 %36, double %34, double %35
  store double %.sroa.speculated88, ptr %2, align 8, !tbaa !80
  %37 = load double, ptr %32, align 8, !tbaa !80
  %38 = fmul double %1, %37
  %39 = load double, ptr %3, align 8, !tbaa !80
  %40 = fcmp olt double %39, %38
  %.sroa.speculated84 = select i1 %40, double %38, double %39
  store double %.sroa.speculated84, ptr %3, align 8, !tbaa !80
  %indvars.iv.next101 = add nsw i64 %indvars.iv100, 1
  %exitcond.not = icmp eq i64 %indvars.iv.next101, %wide.trip.count
  br i1 %exitcond.not, label %.loopexit, label %31, !llvm.loop !284

41:                                               ; preds = %20
  %42 = getelementptr inbounds nuw i8, ptr %22, i64 64
  %43 = load i32, ptr %42, align 8, !tbaa !176
  %44 = icmp sgt i32 %43, 1
  %or.cond = and i1 %12, %44
  %spec.select = zext i1 %or.cond to i64
  %45 = getelementptr inbounds nuw i8, ptr %22, i64 16
  %46 = getelementptr inbounds nuw [2 x double], ptr %45, i64 0, i64 %spec.select
  %47 = load double, ptr %46, align 8, !tbaa !80
  %48 = getelementptr inbounds nuw i8, ptr %22, i64 48
  %49 = getelementptr inbounds nuw [2 x i32], ptr %48, i64 0, i64 %spec.select
  %50 = load i32, ptr %49, align 4, !tbaa !4
  %51 = getelementptr inbounds nuw i8, ptr %22, i64 32
  %52 = getelementptr inbounds nuw [2 x i64], ptr %51, i64 0, i64 %spec.select
  %53 = getelementptr inbounds nuw [2 x ptr], ptr %22, i64 0, i64 %spec.select
  %54 = zext i32 %50 to i64
  br label %55

55:                                               ; preds = %58, %41
  %indvars.iv = phi i64 [ %59, %58 ], [ %54, %41 ]
  %56 = trunc nuw i64 %indvars.iv to i32
  %57 = icmp sgt i32 %56, 0
  br i1 %57, label %58, label %.loopexit

58:                                               ; preds = %55
  %59 = add nsw i64 %indvars.iv, -1
  %60 = load i64, ptr %52, align 8, !tbaa !171
  %61 = sitofp i64 %60 to double
  %62 = fmul double %1, %61
  %63 = fmul double %47, %62
  %64 = load double, ptr %2, align 8, !tbaa !80
  %65 = fcmp olt double %63, %64
  %.sroa.speculated80 = select i1 %65, double %63, double %64
  store double %.sroa.speculated80, ptr %2, align 8, !tbaa !80
  %66 = load double, ptr %3, align 8, !tbaa !80
  %67 = fcmp olt double %66, %63
  %.sroa.speculated76 = select i1 %67, double %63, double %66
  store double %.sroa.speculated76, ptr %3, align 8, !tbaa !80
  %68 = load ptr, ptr %53, align 8, !tbaa !66
  %69 = getelementptr inbounds nuw i32, ptr %68, i64 %59
  %70 = load i32, ptr %69, align 4, !tbaa !4
  %.not65 = icmp eq i32 %70, 0
  br i1 %.not65, label %55, label %71, !llvm.loop !285

71:                                               ; preds = %58
  %72 = add i64 %60, %indvars.iv
  %73 = sitofp i64 %72 to double
  %74 = fmul double %1, %73
  %75 = fmul double %47, %74
  %76 = load double, ptr %2, align 8, !tbaa !80
  %77 = fcmp olt double %75, %76
  %.sroa.speculated72 = select i1 %77, double %75, double %76
  store double %.sroa.speculated72, ptr %2, align 8, !tbaa !80
  %78 = load double, ptr %3, align 8, !tbaa !80
  %79 = fcmp olt double %78, %75
  %.sroa.speculated = select i1 %79, double %75, double %78
  store double %.sroa.speculated, ptr %3, align 8, !tbaa !80
  br label %.loopexit

.loopexit:                                        ; preds = %55, %31, %23, %71, %13
  %indvars.iv.next104 = add nuw nsw i64 %indvars.iv103, 1
  %exitcond107.not = icmp eq i64 %indvars.iv.next104, %wide.trip.count106
  br i1 %exitcond107.not, label %._crit_edge, label %13, !llvm.loop !286

._crit_edge:                                      ; preds = %.loopexit, %4
  ret void
}